; Function Attrs: nounwind uwtable
define internal fastcc i32 @extract_attr_opaque(ptr noundef %0, ptr noundef nonnull %1, ptr noundef %2, ptr noundef nonnull %3, ptr noundef nonnull %4, i32 noundef %5) unnamed_addr #0 {
  %7 = icmp slt i32 %5, 0
  br i1 %7, label %8, label %14

8:                                                ; preds = %6
  %9 = getelementptr inbounds nuw i8, ptr %1, i64 48
  %10 = load ptr, ptr %9, align 8, !tbaa !75
  %11 = getelementptr inbounds nuw i8, ptr %10, i64 72
  %12 = load ptr, ptr %11, align 8, !tbaa !40
  %13 = tail call i32 (ptr, i32, ptr, ...) %12(ptr noundef %10, i32 noundef 17, ptr noundef nonnull @.str.84, ptr noundef nonnull %3, ptr noundef nonnull %4, i32 noundef %5) #9
  br label %check_bad_attrsz.exit

14:                                               ; preds = %6
  %15 = zext nneg i32 %5 to i64
  %16 = getelementptr inbounds nuw i8, ptr %1, i64 48
  %17 = load ptr, ptr %16, align 8, !tbaa !75
  %18 = getelementptr inbounds nuw i8, ptr %17, i64 152
  %19 = load i64, ptr %18, align 8, !tbaa !93
  %20 = icmp sgt i64 %19, 0
  %21 = getelementptr inbounds nuw i8, ptr %1, i64 16
  %22 = load i64, ptr %21, align 8, !tbaa !94
  %23 = icmp slt i64 %22, %15
  %or.cond19.i.i = select i1 %20, i1 %23, i1 false
  br i1 %or.cond19.i.i, label %24, label %._crit_edge.i.i

24:                                               ; preds = %14
  %25 = sub i64 %15, %22
  %26 = getelementptr inbounds nuw i8, ptr %1, i64 24
  %27 = load i64, ptr %26, align 8, !tbaa !70
  %28 = add nsw i64 %25, %27
  %.not.i.i = icmp sgt i64 %28, %19
  br i1 %.not.i.i, label %30, label %check_bad_attrsz.exit.thread

._crit_edge.i.i:                                  ; preds = %14
  %29 = icmp eq i32 %5, 2147483647
  %or.cond.i.i = and i1 %29, %23
  br i1 %or.cond.i.i, label %30, label %check_bad_attrsz.exit.thread

30:                                               ; preds = %._crit_edge.i.i, %24
  %31 = getelementptr inbounds nuw i8, ptr %17, i64 72
  %32 = load ptr, ptr %31, align 8, !tbaa !40
  %33 = tail call i32 (ptr, i32, ptr, ...) %32(ptr noundef nonnull %17, i32 noundef 17, ptr noundef nonnull @.str.85, ptr noundef nonnull %3, ptr noundef nonnull %4, i32 noundef %5) #9
  br label %check_bad_attrsz.exit

check_bad_attrsz.exit:                            ; preds = %8, %30
  %.0.i = phi i32 [ %13, %8 ], [ %33, %30 ]
  %.not = icmp eq i32 %.0.i, 0
  br i1 %.not, label %check_bad_attrsz.exit.thread, label %48

check_bad_attrsz.exit.thread:                     ; preds = %24, %._crit_edge.i.i, %check_bad_attrsz.exit
  %34 = tail call i32 @exr_attr_opaquedata_destroy(ptr noundef %0, ptr noundef %2) #9
  %35 = sext i32 %5 to i64
  %36 = tail call i32 @exr_attr_opaquedata_init(ptr noundef %0, ptr noundef %2, i64 noundef %35) #9
  %.not29 = icmp eq i32 %36, 0
  br i1 %.not29, label %37, label %48

37:                                               ; preds = %check_bad_attrsz.exit.thread
  %38 = getelementptr inbounds nuw i8, ptr %1, i64 32
  %39 = load ptr, ptr %38, align 8, !tbaa !73
  %40 = getelementptr inbounds nuw i8, ptr %2, i64 16
  %41 = load ptr, ptr %40, align 8, !tbaa !123
  %42 = tail call i32 %39(ptr noundef nonnull %1, ptr noundef %41, i64 noundef %35) #9
  %.not30 = icmp eq i32 %42, 0
  br i1 %.not30, label %48, label %43

43:                                               ; preds = %37
  %44 = tail call i32 @exr_attr_opaquedata_destroy(ptr noundef %0, ptr noundef nonnull %2) #9
  %45 = getelementptr inbounds nuw i8, ptr %0, i64 72
  %46 = load ptr, ptr %45, align 8, !tbaa !40
  %47 = tail call i32 (ptr, i32, ptr, ...) %46(ptr noundef %0, i32 noundef 10, ptr noundef nonnull @.str.104, ptr noundef nonnull %3, ptr noundef nonnull %4, i32 noundef %5) #9
  br label %48

48:                                               ; preds = %37, %check_bad_attrsz.exit.thread, %check_bad_attrsz.exit, %43
  %.0 = phi i32 [ %47, %43 ], [ %.0.i, %check_bad_attrsz.exit ], [ %36, %check_bad_attrsz.exit.thread ], [ 0, %37 ]
  ret i32 %.0
}